target datalayout = "e-m:e-p270:32:32-p271:32:32-p272:64:64-i64:64-i128:128-f80:128-n8:16:32:64-S128"
target triple = "x86_64-pc-linux-gnu"

%class.OopHandle = type { ptr }
%class.MemoryPool = type <{ ptr, ptr, i32, [4 x i8], i64, i64, i8, [7 x i8], [5 x ptr], i32, [4 x i8], %class.MemoryUsage, %class.MemoryUsage, ptr, ptr, ptr, ptr, %class.OopHandle, i8, [7 x i8] }>
%class.MemoryUsage = type { i64, i64, i64, i64 }
%class.ThresholdSupport = type { i8, i8, i64, i64 }

@.str.7 = private unnamed_addr constant [23 x i8] c"Compressed Class Space\00", align 1
@CompressedClassSpaceSize = external global i64, align 8

; Function Attrs: mustprogress nounwind uwtable
define linkonce_odr hidden void @_ZN9OopHandleC2Ev(ptr noundef nonnull align 8 dereferenceable(8) %0) unnamed_addr #1 comdat align 2 {
  %2 = alloca ptr, align 8
  store ptr %0, ptr %2, align 8
  %3 = load ptr, ptr %2, align 8
  %4 = getelementptr inbounds %class.OopHandle, ptr %3, i32 0, i32 0
  store ptr null, ptr %4, align 8
  ret void
}

; Function Attrs: mustprogress nounwind uwtable
define linkonce_odr hidden void @_ZN16ThresholdSupportC2Ebb(ptr noundef nonnull align 8 dereferenceable(24) %0, i1 noundef zeroext %1, i1 noundef zeroext %2) unnamed_addr #1 comdat align 2 {
  %4 = alloca ptr, align 8
  %5 = alloca i8, align 1
  %6 = alloca i8, align 1
  store ptr %0, ptr %4, align 8
  %7 = zext i1 %1 to i8
  store i8 %7, ptr %5, align 1
  %8 = zext i1 %2 to i8
  store i8 %8, ptr %6, align 1
  %9 = load ptr, ptr %4, align 8
  %10 = load i8, ptr %5, align 1
  %11 = trunc i8 %10 to i1
  %12 = getelementptr inbounds %class.ThresholdSupport, ptr %9, i32 0, i32 0
  %13 = zext i1 %11 to i8
  store i8 %13, ptr %12, align 8
  %14 = load i8, ptr %6, align 1
  %15 = trunc i8 %14 to i1
  %16 = getelementptr inbounds %class.ThresholdSupport, ptr %9, i32 0, i32 1
  %17 = zext i1 %15 to i8
  store i8 %17, ptr %16, align 1
  %18 = getelementptr inbounds %class.ThresholdSupport, ptr %9, i32 0, i32 2
  store i64 0, ptr %18, align 8
  %19 = getelementptr inbounds %class.ThresholdSupport, ptr %9, i32 0, i32 3
  store i64 0, ptr %19, align 8
  ret void
}

; Function Attrs: mustprogress nounwind uwtable
define linkonce_odr hidden void @_ZN11MemoryUsageC2Emmmm(ptr noundef nonnull align 8 dereferenceable(32) %0, i64 noundef %1, i64 noundef %2, i64 noundef %3, i64 noundef %4) unnamed_addr #1 comdat align 2 {
  %6 = alloca ptr, align 8
  %7 = alloca i64, align 8
  %8 = alloca i64, align 8
  %9 = alloca i64, align 8
  %10 = alloca i64, align 8
  store ptr %0, ptr %6, align 8
  store i64 %1, ptr %7, align 8
  store i64 %2, ptr %8, align 8
  store i64 %3, ptr %9, align 8
  store i64 %4, ptr %10, align 8
  %11 = load ptr, ptr %6, align 8
  %12 = getelementptr inbounds %class.MemoryUsage, ptr %11, i32 0, i32 0
  %13 = load i64, ptr %7, align 8
  store i64 %13, ptr %12, align 8
  %14 = getelementptr inbounds %class.MemoryUsage, ptr %11, i32 0, i32 1
  %15 = load i64, ptr %8, align 8
  store i64 %15, ptr %14, align 8
  %16 = getelementptr inbounds %class.MemoryUsage, ptr %11, i32 0, i32 2
  %17 = load i64, ptr %9, align 8
  store i64 %17, ptr %16, align 8
  %18 = getelementptr inbounds %class.MemoryUsage, ptr %11, i32 0, i32 3
  %19 = load i64, ptr %10, align 8
  store i64 %19, ptr %18, align 8
  ret void
}

; Function Attrs: mustprogress nounwind uwtable
define linkonce_odr hidden void @_ZN11MemoryUsageC2Ev(ptr noundef nonnull align 8 dereferenceable(32) %0) unnamed_addr #1 comdat align 2 {
  %2 = alloca ptr, align 8
  store ptr %0, ptr %2, align 8
  %3 = load ptr, ptr %2, align 8
  %4 = getelementptr inbounds %class.MemoryUsage, ptr %3, i32 0, i32 0
  store i64 0, ptr %4, align 8
  %5 = getelementptr inbounds %class.MemoryUsage, ptr %3, i32 0, i32 1
  store i64 0, ptr %5, align 8
  %6 = getelementptr inbounds %class.MemoryUsage, ptr %3, i32 0, i32 2
  store i64 0, ptr %6, align 8
  %7 = getelementptr inbounds %class.MemoryUsage, ptr %3, i32 0, i32 3
  store i64 0, ptr %7, align 8
  ret void
}

; Function Attrs: mustprogress nounwind uwtable
define hidden void @_ZN10MemoryPoolC2EPKcNS_8PoolTypeEmmbb(ptr noundef nonnull align 8 dereferenceable(201) %0, ptr noundef %1, i32 noundef %2, i64 noundef %3, i64 noundef %4, i1 noundef zeroext %5, i1 noundef zeroext %6) unnamed_addr #1 align 2 {
  %8 = alloca i64, align 8
  %9 = alloca i8, align 1
  %10 = alloca i64, align 8
  %11 = alloca i8, align 1
  %12 = alloca i64, align 8
  %13 = alloca i64, align 8
  %14 = alloca ptr, align 8
  %15 = alloca ptr, align 8
  %16 = alloca i32, align 4
  %17 = alloca i64, align 8
  %18 = alloca i64, align 8
  %19 = alloca i8, align 1
  %20 = alloca i8, align 1
  store ptr %0, ptr %14, align 8
  store ptr %1, ptr %15, align 8
  store i32 %2, ptr %16, align 4
  store i64 %3, ptr %17, align 8
  store i64 %4, ptr %18, align 8
  %21 = zext i1 %5 to i8
  store i8 %21, ptr %19, align 1
  %22 = zext i1 %6 to i8
  store i8 %22, ptr %20, align 1
  %23 = load ptr, ptr %14, align 8
  store ptr getelementptr inbounds inrange(-16, 64) ({ [10 x ptr] }, ptr @_ZTV10MemoryPool, i32 0, i32 0, i32 2), ptr %23, align 8
  %24 = getelementptr inbounds %class.MemoryPool, ptr %23, i32 0, i32 1
  %25 = load ptr, ptr %15, align 8
  store ptr %25, ptr %24, align 8
  %26 = getelementptr inbounds %class.MemoryPool, ptr %23, i32 0, i32 2
  %27 = load i32, ptr %16, align 4
  store i32 %27, ptr %26, align 8
  %28 = getelementptr inbounds %class.MemoryPool, ptr %23, i32 0, i32 4
  %29 = load i64, ptr %17, align 8
  store i64 %29, ptr %28, align 8
  %30 = getelementptr inbounds %class.MemoryPool, ptr %23, i32 0, i32 5
  %31 = load i64, ptr %18, align 8
  store i64 %31, ptr %30, align 8
  %32 = getelementptr inbounds %class.MemoryPool, ptr %23, i32 0, i32 6
  store i8 1, ptr %32, align 8
  %33 = getelementptr inbounds %class.MemoryPool, ptr %23, i32 0, i32 8
  call void @llvm.memset.p0.i64(ptr align 8 %33, i8 0, i64 40, i1 false)
  %34 = getelementptr inbounds %class.MemoryPool, ptr %23, i32 0, i32 9
  store i32 0, ptr %34, align 8
  %35 = getelementptr inbounds %class.MemoryPool, ptr %23, i32 0, i32 11
  call void @_ZN11MemoryUsageC2Ev(ptr noundef nonnull align 8 dereferenceable(32) %35)
  %36 = getelementptr inbounds %class.MemoryPool, ptr %23, i32 0, i32 12
  %37 = load i64, ptr %17, align 8
  %38 = load i64, ptr %18, align 8
  call void @_ZN11MemoryUsageC2Emmmm(ptr noundef nonnull align 8 dereferenceable(32) %36, i64 noundef %37, i64 noundef 0, i64 noundef 0, i64 noundef %38)
  %39 = getelementptr inbounds %class.MemoryPool, ptr %23, i32 0, i32 13
  store i64 24, ptr %12, align 8
  %40 = load i64, ptr %12, align 8
  store i64 %40, ptr %10, align 8
  store i8 9, ptr %11, align 1
  %41 = load i64, ptr %10, align 8
  %42 = load i8, ptr %11, align 1
  %43 = call noundef ptr @_Z12AllocateHeapm8MEMFLAGSN17AllocFailStrategy13AllocFailEnumE(i64 noundef %41, i8 noundef zeroext %42, i32 noundef 0) #8
  %44 = load i8, ptr %19, align 1
  %45 = trunc i8 %44 to i1
  %46 = load i8, ptr %19, align 1
  %47 = trunc i8 %46 to i1
  call void @_ZN16ThresholdSupportC2Ebb(ptr noundef nonnull align 8 dereferenceable(24) %43, i1 noundef zeroext %45, i1 noundef zeroext %47)
  store ptr %43, ptr %39, align 8
  %48 = getelementptr inbounds %class.MemoryPool, ptr %23, i32 0, i32 14
  store i64 24, ptr %13, align 8
  %49 = load i64, ptr %13, align 8
  store i64 %49, ptr %8, align 8
  store i8 9, ptr %9, align 1
  %50 = load i64, ptr %8, align 8
  %51 = load i8, ptr %9, align 1
  %52 = call noundef ptr @_Z12AllocateHeapm8MEMFLAGSN17AllocFailStrategy13AllocFailEnumE(i64 noundef %50, i8 noundef zeroext %51, i32 noundef 0) #8
  %53 = load i8, ptr %20, align 1
  %54 = trunc i8 %53 to i1
  %55 = load i8, ptr %20, align 1
  %56 = trunc i8 %55 to i1
  call void @_ZN16ThresholdSupportC2Ebb(ptr noundef nonnull align 8 dereferenceable(24) %52, i1 noundef zeroext %54, i1 noundef zeroext %56)
  store ptr %52, ptr %48, align 8
  %57 = getelementptr inbounds %class.MemoryPool, ptr %23, i32 0, i32 15
  store ptr null, ptr %57, align 8
  %58 = getelementptr inbounds %class.MemoryPool, ptr %23, i32 0, i32 16
  store ptr null, ptr %58, align 8
  %59 = getelementptr inbounds %class.MemoryPool, ptr %23, i32 0, i32 17
  call void @_ZN9OopHandleC2Ev(ptr noundef nonnull align 8 dereferenceable(8) %59)
  %60 = getelementptr inbounds %class.MemoryPool, ptr %23, i32 0, i32 18
  store volatile i8 0, ptr %60, align 8
  ret void
}

; Function Attrs: mustprogress nounwind uwtable
define hidden void @_ZN24CompressedKlassSpacePoolC2Ev(ptr noundef nonnull align 8 dereferenceable(201) %0) unnamed_addr #1 align 2 {
  %2 = alloca ptr, align 8
  store ptr %0, ptr %2, align 8
  %3 = load ptr, ptr %2, align 8
  %4 = load i64, ptr @CompressedClassSpaceSize, align 8
  call void @_ZN10MemoryPoolC2EPKcNS_8PoolTypeEmmbb(ptr noundef nonnull align 8 dereferenceable(201) %3, ptr noundef @.str.7, i32 noundef 2, i64 noundef 0, i64 noundef %4, i1 noundef zeroext true, i1 noundef zeroext false)
  store ptr getelementptr inbounds inrange(-16, 64) ({ [10 x ptr] }, ptr @_ZTV24CompressedKlassSpacePool, i32 0, i32 0, i32 2), ptr %3, align 8
  ret void
}