; Function Attrs: mustprogress nounwind uwtable
define hidden void @_ZN24CompressedKlassSpacePoolC2Ev(ptr noundef nonnull align 8 dereferenceable(201) %0) unnamed_addr #0 align 2 {
  %2 = load i64, ptr @CompressedClassSpaceSize, align 8
  store ptr getelementptr inbounds inrange(-16, 64) (i8, ptr @_ZTV10MemoryPool, i64 16), ptr %0, align 8
  %3 = getelementptr inbounds i8, ptr %0, i64 8
  store ptr @.str.7, ptr %3, align 8
  %4 = getelementptr inbounds i8, ptr %0, i64 16
  store i32 2, ptr %4, align 8
  %5 = getelementptr inbounds i8, ptr %0, i64 24
  store i64 0, ptr %5, align 8
  %6 = getelementptr inbounds i8, ptr %0, i64 32
  store i64 %2, ptr %6, align 8
  %7 = getelementptr inbounds i8, ptr %0, i64 40
  store i8 1, ptr %7, align 8
  %8 = getelementptr inbounds i8, ptr %0, i64 48
  %9 = getelementptr inbounds i8, ptr %0, i64 96
  tail call void @llvm.memset.p0.i64(ptr noundef nonnull align 8 dereferenceable(44) %8, i8 0, i64 44, i1 false)
  %10 = getelementptr inbounds i8, ptr %0, i64 152
  tail call void @llvm.memset.p0.i64(ptr noundef nonnull align 8 dereferenceable(56) %9, i8 0, i64 56, i1 false)
  store i64 %2, ptr %10, align 8
  %11 = getelementptr inbounds i8, ptr %0, i64 160
  %12 = tail call noundef ptr @_Z12AllocateHeapm8MEMFLAGSN17AllocFailStrategy13AllocFailEnumE(i64 noundef 24, i8 noundef zeroext 9, i32 noundef 0) #10
  store i8 1, ptr %12, align 8
  %13 = getelementptr inbounds i8, ptr %12, i64 1
  store i8 1, ptr %13, align 1
  %14 = getelementptr inbounds i8, ptr %12, i64 8
  tail call void @llvm.memset.p0.i64(ptr noundef nonnull align 8 dereferenceable(16) %14, i8 0, i64 16, i1 false)
  store ptr %12, ptr %11, align 8
  %15 = getelementptr inbounds i8, ptr %0, i64 168
  %16 = tail call noundef ptr @_Z12AllocateHeapm8MEMFLAGSN17AllocFailStrategy13AllocFailEnumE(i64 noundef 24, i8 noundef zeroext 9, i32 noundef 0) #10
  store i8 0, ptr %16, align 8
  %17 = getelementptr inbounds i8, ptr %16, i64 1
  store i8 0, ptr %17, align 1
  %18 = getelementptr inbounds i8, ptr %16, i64 8
  tail call void @llvm.memset.p0.i64(ptr noundef nonnull align 8 dereferenceable(16) %18, i8 0, i64 16, i1 false)
  store ptr %16, ptr %15, align 8
  %19 = getelementptr inbounds i8, ptr %0, i64 176
  %20 = getelementptr inbounds i8, ptr %0, i64 200
  tail call void @llvm.memset.p0.i64(ptr noundef nonnull align 8 dereferenceable(24) %19, i8 0, i64 24, i1 false)
  store volatile i8 0, ptr %20, align 8
  store ptr getelementptr inbounds inrange(-16, 64) (i8, ptr @_ZTV24CompressedKlassSpacePool, i64 16), ptr %0, align 8
  ret void
}